; Function Attrs: mustprogress nounwind uwtable
define noundef nonnull align 8 dereferenceable(16) ptr @_ZN7rocksdb19WriteBatchWithIndexaSEOS0_(ptr noundef nonnull returned align 8 dereferenceable(16) %0, ptr noundef nonnull align 8 captures(none) dereferenceable(16) %1) local_unnamed_addr #1 align 2 personality ptr @__gxx_personality_v0 {
  %3 = getelementptr inbounds nuw i8, ptr %0, i64 8
  %4 = getelementptr inbounds nuw i8, ptr %1, i64 8
  %5 = load ptr, ptr %4, align 8, !tbaa !202
  store ptr null, ptr %4, align 8, !tbaa !202
  %6 = load ptr, ptr %3, align 8, !tbaa !202
  store ptr %5, ptr %3, align 8, !tbaa !202
  %.not.i.i.i.i = icmp eq ptr %6, null
  br i1 %.not.i.i.i.i, label %_ZNSt10unique_ptrIN7rocksdb19WriteBatchWithIndex3RepESt14default_deleteIS2_EEaSEOS5_.exit, label %7

7:                                                ; preds = %2
  tail call void @_ZNKSt14default_deleteIN7rocksdb19WriteBatchWithIndex3RepEEclEPS2_(ptr noundef nonnull align 8 dereferenceable(8) %3, ptr noundef nonnull %6)
  br label %_ZNSt10unique_ptrIN7rocksdb19WriteBatchWithIndex3RepESt14default_deleteIS2_EEaSEOS5_.exit

_ZNSt10unique_ptrIN7rocksdb19WriteBatchWithIndex3RepESt14default_deleteIS2_EEaSEOS5_.exit: ; preds = %2, %7
  ret ptr %0
}